target datalayout = "e-m:e-p270:32:32-p271:32:32-p272:64:64-i64:64-i128:128-f80:128-n8:16:32:64-S128"
target triple = "x86_64-pc-linux-gnu"

%"struct.clang::CodeGen::CodeGenTypeCache" = type { ptr, ptr, ptr, ptr, ptr, ptr, ptr, ptr, ptr, ptr, ptr, %union.anon, %union.anon.0, %union.anon.1, %union.anon.2, ptr, %union.anon.3, i8, %union.anon.4, %union.anon.5, i32, i32 }
%union.anon = type { ptr }
%union.anon.0 = type { ptr }
%union.anon.1 = type { ptr }
%union.anon.2 = type { ptr }
%union.anon.3 = type { i8 }
%union.anon.4 = type { i8 }
%union.anon.5 = type { i8 }
%"class.llvm::SmallVectorBase" = type { ptr, i32, i32 }
%"class.clang::CharUnits" = type { i64 }
%"class.clang::CodeGen::ConstantAggregateBuilderBase" = type { ptr, ptr, i64, i64, i8, i8, i8, %"class.clang::CharUnits" }
%"class.clang::CodeGen::ConstantInitBuilderBase" = type <{ ptr, %"class.llvm::SmallVector.1322", %"class.std::vector.1327", i8, [7 x i8] }>
%"class.llvm::SmallVector.1322" = type { %"class.llvm::SmallVectorImpl.1323", %"struct.llvm::SmallVectorStorage.1326" }
%"class.llvm::SmallVectorImpl.1323" = type { %"class.llvm::SmallVectorTemplateBase.1324" }
%"class.llvm::SmallVectorTemplateBase.1324" = type { %"class.llvm::SmallVectorTemplateCommon.1325" }
%"class.llvm::SmallVectorTemplateCommon.1325" = type { %"class.llvm::SmallVectorBase" }
%"struct.llvm::SmallVectorStorage.1326" = type { [128 x i8] }
%"class.std::vector.1327" = type { %"struct.std::_Vector_base.1328" }
%"struct.std::_Vector_base.1328" = type { %"struct.std::_Vector_base<clang::CodeGen::ConstantInitBuilderBase::SelfReference, std::allocator<clang::CodeGen::ConstantInitBuilderBase::SelfReference>>::_Vector_impl" }
%"struct.std::_Vector_base<clang::CodeGen::ConstantInitBuilderBase::SelfReference, std::allocator<clang::CodeGen::ConstantInitBuilderBase::SelfReference>>::_Vector_impl" = type { %"struct.std::_Vector_base<clang::CodeGen::ConstantInitBuilderBase::SelfReference, std::allocator<clang::CodeGen::ConstantInitBuilderBase::SelfReference>>::_Vector_impl_data" }
%"struct.std::_Vector_base<clang::CodeGen::ConstantInitBuilderBase::SelfReference, std::allocator<clang::CodeGen::ConstantInitBuilderBase::SelfReference>>::_Vector_impl_data" = type { ptr, ptr, ptr }

; Function Attrs: mustprogress nounwind uwtable
define linkonce_odr hidden noundef ptr @_ZNK4llvm25SmallVectorTemplateCommonIPNS_8ConstantEvE10getFirstElEv(ptr noundef nonnull align 8 dereferenceable(16) %0) #0 comdat align 2 {
  %2 = alloca ptr, align 8
  store ptr %0, ptr %2, align 8
  %3 = load ptr, ptr %2, align 8
  %4 = getelementptr inbounds i8, ptr %3, i64 16
  ret ptr %4
}

; Function Attrs: mustprogress nounwind uwtable
define linkonce_odr hidden void @_ZN4llvm25SmallVectorTemplateCommonIPNS_8ConstantEvE8grow_podEmm(ptr noundef nonnull align 8 dereferenceable(16) %0, i64 noundef %1, i64 noundef %2) #0 comdat align 2 {
  %4 = alloca ptr, align 8
  %5 = alloca i64, align 8
  %6 = alloca i64, align 8
  store ptr %0, ptr %4, align 8
  store i64 %1, ptr %5, align 8
  store i64 %2, ptr %6, align 8
  %7 = load ptr, ptr %4, align 8
  %8 = call noundef ptr @_ZNK4llvm25SmallVectorTemplateCommonIPNS_8ConstantEvE10getFirstElEv(ptr noundef nonnull align 8 dereferenceable(16) %7)
  %9 = load i64, ptr %5, align 8
  %10 = load i64, ptr %6, align 8
  call void @_ZN4llvm15SmallVectorBaseIjE8grow_podEPvmm(ptr noundef nonnull align 8 dereferenceable(16) %7, ptr noundef %8, i64 noundef %9, i64 noundef %10)
  ret void
}

; Function Attrs: mustprogress nounwind uwtable
define linkonce_odr hidden void @_ZN4llvm23SmallVectorTemplateBaseIPNS_8ConstantELb1EE4growEm(ptr noundef nonnull align 8 dereferenceable(16) %0, i64 noundef %1) #0 comdat align 2 {
  %3 = alloca ptr, align 8
  %4 = alloca i64, align 8
  store ptr %0, ptr %3, align 8
  store i64 %1, ptr %4, align 8
  %5 = load ptr, ptr %3, align 8
  %6 = load i64, ptr %4, align 8
  call void @_ZN4llvm25SmallVectorTemplateCommonIPNS_8ConstantEvE8grow_podEmm(ptr noundef nonnull align 8 dereferenceable(16) %5, i64 noundef %6, i64 noundef 8)
  ret void
}

; Function Attrs: mustprogress nounwind uwtable
define linkonce_odr hidden noundef ptr @_ZN4llvm25SmallVectorTemplateCommonIPNS_8ConstantEvE5beginEv(ptr noundef nonnull align 8 dereferenceable(16) %0) #0 comdat align 2 {
  %2 = alloca ptr, align 8
  store ptr %0, ptr %2, align 8
  %3 = load ptr, ptr %2, align 8
  %4 = getelementptr inbounds nuw %"class.llvm::SmallVectorBase", ptr %3, i32 0, i32 0
  %5 = load ptr, ptr %4, align 8
  ret ptr %5
}

; Function Attrs: mustprogress nounwind uwtable
define linkonce_odr hidden noundef ptr @_ZN4llvm25SmallVectorTemplateCommonIPNS_8ConstantEvE32reserveForParamAndGetAddressImplINS_23SmallVectorTemplateBaseIS2_Lb1EEEEEPKS2_PT_RS7_m(ptr noundef %0, ptr noundef nonnull align 8 dereferenceable(8) %1, i64 noundef %2) #0 comdat align 2 {
  %4 = alloca ptr, align 8
  %5 = alloca ptr, align 8
  %6 = alloca ptr, align 8
  %7 = alloca i64, align 8
  %8 = alloca i64, align 8
  %9 = alloca i8, align 1
  %10 = alloca i64, align 8
  store ptr %0, ptr %5, align 8
  store ptr %1, ptr %6, align 8
  store i64 %2, ptr %7, align 8
  %11 = load ptr, ptr %5, align 8
  %12 = call noundef i64 @_ZNK4llvm15SmallVectorBaseIjE4sizeEv(ptr noundef nonnull align 8 dereferenceable(16) %11)
  %13 = load i64, ptr %7, align 8
  %14 = add i64 %12, %13
  store i64 %14, ptr %8, align 8
  %15 = load i64, ptr %8, align 8
  %16 = load ptr, ptr %5, align 8
  %17 = call noundef i64 @_ZNK4llvm15SmallVectorBaseIjE8capacityEv(ptr noundef nonnull align 8 dereferenceable(16) %16)
  %18 = icmp ule i64 %15, %17
  br i1 %18, label %19, label %21

19:                                               ; preds = %3
  %20 = load ptr, ptr %6, align 8
  store ptr %20, ptr %4, align 8
  br label %35

21:                                               ; preds = %3
  store i8 0, ptr %9, align 1
  store i64 -1, ptr %10, align 8
  %22 = load ptr, ptr %5, align 8
  %23 = load i64, ptr %8, align 8
  call void @_ZN4llvm23SmallVectorTemplateBaseIPNS_8ConstantELb1EE4growEm(ptr noundef nonnull align 8 dereferenceable(16) %22, i64 noundef %23)
  %24 = load i8, ptr %9, align 1
  %25 = trunc i8 %24 to i1
  br i1 %25, label %26, label %31

26:                                               ; preds = %21
  %27 = load ptr, ptr %5, align 8
  %28 = call noundef ptr @_ZN4llvm25SmallVectorTemplateCommonIPNS_8ConstantEvE5beginEv(ptr noundef nonnull align 8 dereferenceable(16) %27)
  %29 = load i64, ptr %10, align 8
  %30 = getelementptr inbounds ptr, ptr %28, i64 %29
  br label %33

31:                                               ; preds = %21
  %32 = load ptr, ptr %6, align 8
  br label %33

33:                                               ; preds = %31, %26
  %34 = phi ptr [ %30, %26 ], [ %32, %31 ]
  store ptr %34, ptr %4, align 8
  br label %35

35:                                               ; preds = %33, %19
  %36 = load ptr, ptr %4, align 8
  ret ptr %36
}

; Function Attrs: mustprogress nounwind uwtable
define linkonce_odr hidden noundef ptr @_ZN4llvm25SmallVectorTemplateCommonIPNS_8ConstantEvE3endEv(ptr noundef nonnull align 8 dereferenceable(16) %0) #0 comdat align 2 {
  %2 = alloca ptr, align 8
  store ptr %0, ptr %2, align 8
  %3 = load ptr, ptr %2, align 8
  %4 = call noundef ptr @_ZN4llvm25SmallVectorTemplateCommonIPNS_8ConstantEvE5beginEv(ptr noundef nonnull align 8 dereferenceable(16) %3)
  %5 = call noundef i64 @_ZNK4llvm15SmallVectorBaseIjE4sizeEv(ptr noundef nonnull align 8 dereferenceable(16) %3)
  %6 = getelementptr inbounds ptr, ptr %4, i64 %5
  ret ptr %6
}

; Function Attrs: mustprogress nounwind uwtable
define linkonce_odr hidden noundef ptr @_ZN4llvm23SmallVectorTemplateBaseIPNS_8ConstantELb1EE28reserveForParamAndGetAddressERS2_m(ptr noundef nonnull align 8 dereferenceable(16) %0, ptr noundef nonnull align 8 dereferenceable(8) %1, i64 noundef %2) #0 comdat align 2 {
  %4 = alloca ptr, align 8
  %5 = alloca ptr, align 8
  %6 = alloca i64, align 8
  store ptr %0, ptr %4, align 8
  store ptr %1, ptr %5, align 8
  store i64 %2, ptr %6, align 8
  %7 = load ptr, ptr %4, align 8
  %8 = load ptr, ptr %5, align 8
  %9 = load i64, ptr %6, align 8
  %10 = call noundef ptr @_ZN4llvm25SmallVectorTemplateCommonIPNS_8ConstantEvE32reserveForParamAndGetAddressImplINS_23SmallVectorTemplateBaseIS2_Lb1EEEEEPKS2_PT_RS7_m(ptr noundef %7, ptr noundef nonnull align 8 dereferenceable(8) %8, i64 noundef %9)
  ret ptr %10
}

; Function Attrs: mustprogress nounwind uwtable
define linkonce_odr hidden void @_ZN4llvm23SmallVectorTemplateBaseIPNS_8ConstantELb1EE9push_backES2_(ptr noundef nonnull align 8 dereferenceable(16) %0, ptr noundef %1) #0 comdat align 2 {
  %3 = alloca ptr, align 8
  %4 = alloca ptr, align 8
  %5 = alloca ptr, align 8
  store ptr %0, ptr %3, align 8
  store ptr %1, ptr %4, align 8
  %6 = load ptr, ptr %3, align 8
  %7 = call noundef ptr @_ZN4llvm23SmallVectorTemplateBaseIPNS_8ConstantELb1EE28reserveForParamAndGetAddressERS2_m(ptr noundef nonnull align 8 dereferenceable(16) %6, ptr noundef nonnull align 8 dereferenceable(8) %4, i64 noundef 1)
  store ptr %7, ptr %5, align 8
  %8 = call noundef ptr @_ZN4llvm25SmallVectorTemplateCommonIPNS_8ConstantEvE3endEv(ptr noundef nonnull align 8 dereferenceable(16) %6)
  %9 = load ptr, ptr %5, align 8
  call void @llvm.memcpy.p0.p0.i64(ptr align 1 %8, ptr align 8 %9, i64 8, i1 false)
  %10 = call noundef i64 @_ZNK4llvm15SmallVectorBaseIjE4sizeEv(ptr noundef nonnull align 8 dereferenceable(16) %6)
  %11 = add i64 %10, 1
  call void @_ZN4llvm15SmallVectorBaseIjE8set_sizeEm(ptr noundef nonnull align 8 dereferenceable(16) %6, i64 noundef %11)
  ret void
}

; Function Attrs: mustprogress nounwind uwtable
define linkonce_odr hidden void @_ZN5clang7CodeGen28ConstantAggregateBuilderBase3addEPN4llvm8ConstantE(ptr noundef nonnull align 8 dereferenceable(48) %0, ptr noundef %1) #0 comdat align 2 {
  %3 = alloca ptr, align 8
  %4 = alloca ptr, align 8
  store ptr %0, ptr %3, align 8
  store ptr %1, ptr %4, align 8
  %5 = load ptr, ptr %3, align 8
  %6 = getelementptr inbounds nuw %"class.clang::CodeGen::ConstantAggregateBuilderBase", ptr %5, i32 0, i32 0
  %7 = load ptr, ptr %6, align 8
  %8 = getelementptr inbounds nuw %"class.clang::CodeGen::ConstantInitBuilderBase", ptr %7, i32 0, i32 1
  %9 = load ptr, ptr %4, align 8
  call void @_ZN4llvm23SmallVectorTemplateBaseIPNS_8ConstantELb1EE9push_backES2_(ptr noundef nonnull align 8 dereferenceable(16) %8, ptr noundef %9)
  ret void
}

; Function Attrs: mustprogress nounwind uwtable
define linkonce_odr hidden noundef i64 @_ZNK5clang9CharUnits11getQuantityEv(ptr noundef nonnull align 8 dereferenceable(8) %0) #0 comdat align 2 {
  %2 = alloca ptr, align 8
  store ptr %0, ptr %2, align 8
  %3 = load ptr, ptr %2, align 8
  %4 = getelementptr inbounds nuw %"class.clang::CharUnits", ptr %3, i32 0, i32 0
  %5 = load i64, ptr %4, align 8
  ret i64 %5
}

; Function Attrs: mustprogress nounwind uwtable
define internal void @_ZL23AddRelativeLayoutOffsetRKN5clang7CodeGen13CodeGenModuleERNS0_20ConstantArrayBuilderENS_9CharUnitsE(ptr noundef nonnull align 8 dereferenceable(3600) %0, ptr noundef nonnull align 8 dereferenceable(56) %1, i64 %2) #0 {
  %4 = alloca %"class.clang::CharUnits", align 8
  %5 = alloca ptr, align 8
  %6 = alloca ptr, align 8
  %7 = getelementptr inbounds nuw %"class.clang::CharUnits", ptr %4, i32 0, i32 0
  store i64 %2, ptr %7, align 8
  store ptr %0, ptr %5, align 8
  store ptr %1, ptr %6, align 8
  %8 = load ptr, ptr %6, align 8
  %9 = load ptr, ptr %5, align 8
  %10 = getelementptr inbounds nuw %"struct.clang::CodeGen::CodeGenTypeCache", ptr %9, i32 0, i32 3
  %11 = load ptr, ptr %10, align 8
  %12 = call noundef i64 @_ZNK5clang9CharUnits11getQuantityEv(ptr noundef nonnull align 8 dereferenceable(8) %4)
  %13 = call noundef ptr @_ZN4llvm11ConstantInt3getEPNS_11IntegerTypeEmb(ptr noundef %11, i64 noundef %12, i1 noundef zeroext false)
  call void @_ZN5clang7CodeGen28ConstantAggregateBuilderBase3addEPN4llvm8ConstantE(ptr noundef nonnull align 8 dereferenceable(48) %8, ptr noundef %13)
  ret void
}