; Function Attrs: mustprogress nounwind uwtable
define internal void @_ZL23AddRelativeLayoutOffsetRKN5clang7CodeGen13CodeGenModuleERNS0_20ConstantArrayBuilderENS_9CharUnitsE(ptr noundef nonnull readonly align 8 captures(none) dereferenceable(3600) %0, ptr noundef nonnull readonly align 8 captures(none) dereferenceable(56) %1, i64 %2) unnamed_addr #0 {
  %4 = getelementptr inbounds nuw i8, ptr %0, i64 24
  %5 = load ptr, ptr %4, align 8
  %6 = tail call noundef ptr @_ZN4llvm11ConstantInt3getEPNS_11IntegerTypeEmb(ptr noundef %5, i64 noundef %2, i1 noundef zeroext false) #17
  %7 = load ptr, ptr %1, align 8
  %8 = getelementptr inbounds nuw i8, ptr %7, i64 8
  %9 = tail call noundef i64 @_ZNK4llvm15SmallVectorBaseIjE4sizeEv(ptr noundef nonnull align 8 dereferenceable(16) %8) #17
  %10 = add i64 %9, 1
  %11 = tail call noundef i64 @_ZNK4llvm15SmallVectorBaseIjE8capacityEv(ptr noundef nonnull align 8 dereferenceable(16) %8) #17
  %.not.i.i.i.i = icmp ugt i64 %10, %11
  br i1 %.not.i.i.i.i, label %12, label %_ZN5clang7CodeGen28ConstantAggregateBuilderBase3addEPN4llvm8ConstantE.exit

12:                                               ; preds = %3
  %13 = getelementptr inbounds nuw i8, ptr %7, i64 24
  tail call void @_ZN4llvm15SmallVectorBaseIjE8grow_podEPvmm(ptr noundef nonnull align 8 dereferenceable(16) %8, ptr noundef nonnull %13, i64 noundef %10, i64 noundef 8) #17
  br label %_ZN5clang7CodeGen28ConstantAggregateBuilderBase3addEPN4llvm8ConstantE.exit

_ZN5clang7CodeGen28ConstantAggregateBuilderBase3addEPN4llvm8ConstantE.exit: ; preds = %3, %12
  %14 = load ptr, ptr %8, align 8
  %15 = tail call noundef i64 @_ZNK4llvm15SmallVectorBaseIjE4sizeEv(ptr noundef nonnull align 8 dereferenceable(16) %8) #17
  %16 = getelementptr inbounds ptr, ptr %14, i64 %15
  %17 = ptrtoint ptr %6 to i64
  store i64 %17, ptr %16, align 1
  %18 = tail call noundef i64 @_ZNK4llvm15SmallVectorBaseIjE4sizeEv(ptr noundef nonnull align 8 dereferenceable(16) %8) #17
  %19 = add i64 %18, 1
  tail call void @_ZN4llvm15SmallVectorBaseIjE8set_sizeEm(ptr noundef nonnull align 8 dereferenceable(16) %8, i64 noundef %19) #17
  ret void
}